; Function Attrs: mustprogress nounwind uwtable
define hidden void @_ZN14GenerateOopMap17do_multianewarrayEii(ptr nocapture noundef nonnull align 8 dereferenceable(176) %0, i32 noundef %1, i32 noundef %2) local_unnamed_addr #0 align 2 {
  %4 = icmp sgt i32 %1, 0
  br i1 %4, label %.lr.ph, label %._crit_edge

.lr.ph:                                           ; preds = %3
  %5 = getelementptr inbounds i8, ptr %0, i64 88
  %6 = getelementptr inbounds i8, ptr %0, i64 72
  %7 = getelementptr inbounds i8, ptr %0, i64 32
  br label %8

8:                                                ; preds = %.lr.ph, %_ZN14GenerateOopMap5ppop1E13CellTypeState.exit
  %.0.in5 = phi i32 [ %1, %.lr.ph ], [ %.0, %_ZN14GenerateOopMap5ppop1E13CellTypeState.exit ]
  %.0 = add nsw i32 %.0.in5, -1
  %9 = load i32, ptr %5, align 8
  %10 = icmp slt i32 %9, 1
  br i1 %10, label %11, label %12

11:                                               ; preds = %8
  tail call void (ptr, ptr, ...) @_ZN14GenerateOopMap12report_errorEPKcz(ptr noundef nonnull align 8 dereferenceable(176) %0, ptr noundef nonnull @.str.78)
  br label %_ZN14GenerateOopMap3popEv.exit.i

12:                                               ; preds = %8
  %13 = load ptr, ptr %6, align 8
  %14 = load i32, ptr %7, align 8
  %15 = sext i32 %14 to i64
  %16 = getelementptr inbounds %class.CellTypeState, ptr %13, i64 %15
  %17 = add nsw i32 %9, -1
  store i32 %17, ptr %5, align 8
  %18 = zext nneg i32 %17 to i64
  %19 = getelementptr inbounds %class.CellTypeState, ptr %16, i64 %18
  br label %_ZN14GenerateOopMap3popEv.exit.i

_ZN14GenerateOopMap3popEv.exit.i:                 ; preds = %12, %11
  %.sroa.0.0.in.i.i = phi ptr [ @_ZL6valCTS, %11 ], [ %19, %12 ]
  %.sroa.0.0.i.i = load i32, ptr %.sroa.0.0.in.i.i, align 4
  %20 = xor i32 %.sroa.0.0.i.i, 536870912
  %21 = icmp ult i32 %20, 268435456
  br i1 %21, label %_ZN14GenerateOopMap5ppop1E13CellTypeState.exit, label %_ZNK13CellTypeState7to_charEv.exit.i.i

_ZNK13CellTypeState7to_charEv.exit.i.i:           ; preds = %_ZN14GenerateOopMap3popEv.exit.i
  tail call void (ptr, ptr, ...) @_ZN14GenerateOopMap12report_errorEPKcz(ptr noundef nonnull align 8 dereferenceable(176) %0, ptr noundef nonnull @.str.78)
  br label %_ZN14GenerateOopMap5ppop1E13CellTypeState.exit

_ZN14GenerateOopMap5ppop1E13CellTypeState.exit:   ; preds = %_ZN14GenerateOopMap3popEv.exit.i, %_ZNK13CellTypeState7to_charEv.exit.i.i
  %22 = icmp ugt i32 %.0.in5, 1
  br i1 %22, label %8, label %._crit_edge, !llvm.loop !52

._crit_edge:                                      ; preds = %_ZN14GenerateOopMap5ppop1E13CellTypeState.exit, %3
  %23 = getelementptr inbounds i8, ptr %0, i64 88
  %24 = load i32, ptr %23, align 8
  %25 = getelementptr inbounds i8, ptr %0, i64 36
  %26 = load i32, ptr %25, align 4
  %.not.i.i = icmp slt i32 %24, %26
  br i1 %.not.i.i, label %28, label %27

27:                                               ; preds = %._crit_edge
  tail call void (ptr, ptr, ...) @_ZN14GenerateOopMap12report_errorEPKcz(ptr noundef nonnull align 8 dereferenceable(176) %0, ptr noundef nonnull @.str.78)
  br label %_ZN14GenerateOopMap6ppush1E13CellTypeState.exit

28:                                               ; preds = %._crit_edge
  %29 = and i32 %2, 16777215
  %30 = or disjoint i32 %29, 1174405120
  %31 = getelementptr inbounds i8, ptr %0, i64 72
  %32 = load ptr, ptr %31, align 8
  %33 = getelementptr inbounds i8, ptr %0, i64 32
  %34 = load i32, ptr %33, align 8
  %35 = sext i32 %34 to i64
  %36 = getelementptr inbounds %class.CellTypeState, ptr %32, i64 %35
  %37 = add nsw i32 %24, 1
  store i32 %37, ptr %23, align 8
  %38 = sext i32 %24 to i64
  %39 = getelementptr inbounds %class.CellTypeState, ptr %36, i64 %38
  store i32 %30, ptr %39, align 4
  br label %_ZN14GenerateOopMap6ppush1E13CellTypeState.exit

_ZN14GenerateOopMap6ppush1E13CellTypeState.exit:  ; preds = %27, %28
  ret void
}